target datalayout = "e-m:e-p270:32:32-p271:32:32-p272:64:64-i64:64-i128:128-f80:128-n8:16:32:64-S128"
target triple = "x86_64-pc-linux-gnu"

%struct._zval_struct = type { %union._zend_value, %union.anon.0, %union.anon.3 }
%union._zend_value = type { i64 }
%union.anon.0 = type { i32 }
%union.anon.3 = type { i32 }
%struct._zend_refcounted_h = type { i32, %union.anon }
%union.anon = type { i32 }
%struct.dom_xpath_object = type { %struct.php_dom_xpath_callbacks, i8, %struct._dom_object }
%struct.php_dom_xpath_callbacks = type { ptr, ptr, ptr }
%struct._dom_object = type { ptr, ptr, ptr, %struct._zend_object }
%struct._zend_object = type { %struct._zend_refcounted_h, i32, i32, ptr, ptr, ptr, [1 x %struct._zval_struct] }
%struct._xmlXPathContext = type { ptr, ptr, i32, i32, ptr, i32, i32, ptr, i32, i32, ptr, i32, i32, ptr, ptr, i32, ptr, i32, i32, i32, ptr, ptr, ptr, ptr, ptr, ptr, ptr, ptr, ptr, ptr, ptr, i32, ptr, ptr, %struct._xmlError, ptr, ptr, i32, ptr, i64, i64, i32 }
%struct._xmlError = type { i32, i32, ptr, i32, ptr, i32, ptr, ptr, ptr, i32, i32, ptr, ptr }
%struct._xmlXPathParserContext = type { ptr, ptr, i32, ptr, ptr, i32, i32, ptr, ptr, i32, ptr, i32 }

@.str.10 = private unnamed_addr constant [57 x i8] c"xmlExtFunctionTest: Function called from outside of PHP\0A\00", align 1
@.str.11 = private unnamed_addr constant [55 x i8] c"xmlExtFunctionTest: failed to get the internal object\0A\00", align 1

; Function Attrs: nounwind uwtable
define internal ptr @dom_xpath_ext_fetch_intern(ptr noundef %0) #0 {
  %2 = alloca ptr, align 8
  %3 = alloca ptr, align 8
  %4 = alloca ptr, align 8
  %5 = alloca i32, align 4
  store ptr %0, ptr %3, align 8, !tbaa !155
  %6 = call zeroext i1 @zend_is_executing()
  %7 = xor i1 %6, true
  %8 = xor i1 %7, true
  %9 = xor i1 %8, true
  %10 = zext i1 %9 to i32
  %11 = sext i32 %10 to i64
  %12 = call i64 @llvm.expect.i64(i64 %11, i64 0)
  %13 = icmp ne i64 %12, 0
  br i1 %13, label %14, label %19

14:                                               ; preds = %1
  %15 = call ptr @__xmlGenericError()
  %16 = load ptr, ptr %15, align 8, !tbaa !151
  %17 = call ptr @__xmlGenericErrorContext()
  %18 = load ptr, ptr %17, align 8, !tbaa !151
  call void (ptr, ptr, ...) %16(ptr noundef %18, ptr noundef @.str.10)
  store ptr null, ptr %2, align 8
  br label %41

19:                                               ; preds = %1
  call void @llvm.lifetime.start.p0(i64 8, ptr %4) #13
  %20 = load ptr, ptr %3, align 8, !tbaa !155
  %21 = getelementptr inbounds nuw %struct._xmlXPathParserContext, ptr %20, i32 0, i32 3
  %22 = load ptr, ptr %21, align 8, !tbaa !157
  %23 = getelementptr inbounds nuw %struct._xmlXPathContext, ptr %22, i32 0, i32 32
  %24 = load ptr, ptr %23, align 8, !tbaa !83
  store ptr %24, ptr %4, align 8, !tbaa !9
  %25 = load ptr, ptr %4, align 8, !tbaa !9
  %26 = icmp eq ptr %25, null
  %27 = xor i1 %26, true
  %28 = xor i1 %27, true
  %29 = zext i1 %28 to i32
  %30 = sext i32 %29 to i64
  %31 = call i64 @llvm.expect.i64(i64 %30, i64 0)
  %32 = icmp ne i64 %31, 0
  br i1 %32, label %33, label %38

33:                                               ; preds = %19
  %34 = call ptr @__xmlGenericError()
  %35 = load ptr, ptr %34, align 8, !tbaa !151
  %36 = call ptr @__xmlGenericErrorContext()
  %37 = load ptr, ptr %36, align 8, !tbaa !151
  call void (ptr, ptr, ...) %35(ptr noundef %37, ptr noundef @.str.11)
  store ptr null, ptr %2, align 8
  store i32 1, ptr %5, align 4
  br label %40

38:                                               ; preds = %19
  %39 = load ptr, ptr %4, align 8, !tbaa !9
  store ptr %39, ptr %2, align 8
  store i32 1, ptr %5, align 4
  br label %40

40:                                               ; preds = %38, %33
  call void @llvm.lifetime.end.p0(i64 8, ptr %4) #13
  br label %41

41:                                               ; preds = %40, %14
  %42 = load ptr, ptr %2, align 8
  ret ptr %42
}

; Function Attrs: nounwind uwtable
define internal void @dom_xpath_ext_function_trampoline(ptr noundef %0, i32 noundef %1) #0 {
  %3 = alloca ptr, align 8
  %4 = alloca i32, align 4
  %5 = alloca ptr, align 8
  store ptr %0, ptr %3, align 8, !tbaa !155
  store i32 %1, ptr %4, align 4, !tbaa !98
  call void @llvm.lifetime.start.p0(i64 8, ptr %5) #13
  %6 = load ptr, ptr %3, align 8, !tbaa !155
  %7 = call ptr @dom_xpath_ext_fetch_intern(ptr noundef %6)
  store ptr %7, ptr %5, align 8, !tbaa !9
  %8 = load ptr, ptr %5, align 8, !tbaa !9
  %9 = icmp ne ptr %8, null
  br i1 %9, label %13, label %10

10:                                               ; preds = %2
  %11 = load ptr, ptr %3, align 8, !tbaa !155
  %12 = load i32, ptr %4, align 4, !tbaa !98
  call void @php_dom_xpath_callbacks_clean_argument_stack(ptr noundef %11, i32 noundef %12)
  br label %21

13:                                               ; preds = %2
  %14 = load ptr, ptr %5, align 8, !tbaa !9
  %15 = getelementptr inbounds nuw %struct.dom_xpath_object, ptr %14, i32 0, i32 0
  %16 = load ptr, ptr %3, align 8, !tbaa !155
  %17 = load i32, ptr %4, align 4, !tbaa !98
  %18 = load ptr, ptr %5, align 8, !tbaa !9
  %19 = getelementptr inbounds nuw %struct.dom_xpath_object, ptr %18, i32 0, i32 2
  %20 = call i32 @php_dom_xpath_callbacks_call_custom_ns(ptr noundef %15, ptr noundef %16, i32 noundef %17, i32 noundef 1, ptr noundef %19, ptr noundef @dom_xpath_proxy_factory)
  br label %21

21:                                               ; preds = %13, %10
  call void @llvm.lifetime.end.p0(i64 8, ptr %5) #13
  ret void
}